; Function Attrs: nounwind sspstrong uwtable
define dso_local void @job_yield(ptr noundef %0) #0 {
  %2 = load atomic i64, ptr @qemu_mutex_lock_func monotonic, align 8
  %3 = inttoptr i64 %2 to ptr
  tail call void %3(ptr noundef nonnull @job_mutex, ptr noundef nonnull @.str.29, i32 noundef 56) #15
  %4 = getelementptr inbounds nuw i8, ptr %0, i64 180
  %5 = load i8, ptr %4, align 4, !range !4, !noundef !5
  %6 = trunc nuw i8 %5 to i1
  br i1 %6, label %8, label %7

7:                                                ; preds = %1
  tail call void @__assert_fail(ptr noundef nonnull @.str.16, ptr noundef nonnull @.str, i32 noundef 647, ptr noundef nonnull @__PRETTY_FUNCTION__.job_yield) #17
  unreachable

8:                                                ; preds = %1
  %9 = getelementptr inbounds nuw i8, ptr %0, i64 183
  %10 = load i8, ptr %9, align 1, !range !4, !noundef !5
  %11 = trunc nuw i8 %10 to i1
  %.phi.trans.insert.i = getelementptr inbounds nuw i8, ptr %0, i64 184
  %.pre.i = load i8, ptr %.phi.trans.insert.i, align 8, !range !4
  %.pre3.i = trunc nuw i8 %.pre.i to i1
  %.pre3.not.i = xor i1 %.pre3.i, true
  %brmerge.i = select i1 %11, i1 true, i1 %.pre3.not.i
  br i1 %brmerge.i, label %job_is_cancelled_locked.exit, label %12

12:                                               ; preds = %8
  tail call void @__assert_fail(ptr noundef nonnull @.str.5, ptr noundef nonnull @.str, i32 noundef 250, ptr noundef nonnull @__PRETTY_FUNCTION__.job_is_cancelled_locked) #17
  unreachable

job_is_cancelled_locked.exit:                     ; preds = %8
  %.pre3.mux.i = select i1 %11, i1 %.pre3.i, i1 false
  br i1 %.pre3.mux.i, label %glib_autoptr_cleanup_QemuLockable.exit, label %13

13:                                               ; preds = %job_is_cancelled_locked.exit
  %14 = getelementptr i8, ptr %0, i64 176
  %.val5 = load i32, ptr %14, align 8
  %15 = icmp sgt i32 %.val5, 0
  br i1 %15, label %17, label %16

16:                                               ; preds = %13
  tail call void @job_do_yield_locked(ptr noundef nonnull %0, i64 noundef -1)
  br label %17

17:                                               ; preds = %16, %13
  tail call void @job_pause_point_locked(ptr noundef nonnull %0)
  br label %glib_autoptr_cleanup_QemuLockable.exit

glib_autoptr_cleanup_QemuLockable.exit:           ; preds = %job_is_cancelled_locked.exit, %17
  tail call void @qemu_mutex_unlock_impl(ptr noundef nonnull @job_mutex, ptr noundef nonnull @.str.29, i32 noundef 56) #15
  ret void
}